; ModuleID = '49/291.c'
source_filename = "49/291.c"
target datalayout = "e-m:e-p270:32:32-p271:32:32-p272:64:64-i64:64-f80:128-n8:16:32:64-S128"
target triple = "x86_64-pc-linux-gnu"

@.str = private unnamed_addr constant [3 x i8] c"%c\00", align 1
@.str.1 = private unnamed_addr constant [4 x i8] c"%c\0A\00", align 1

; Function Attrs: noinline nounwind uwtable
define dso_local i32 @main() #0 {
  %1 = alloca i32, align 4
  %2 = alloca [500 x i8], align 16
  %3 = alloca i32, align 4
  %4 = alloca i32, align 4
  %5 = alloca i32, align 4
  %6 = alloca i32, align 4
  %7 = alloca i32, align 4
  store i32 0, i32* %1, align 4
  %8 = getelementptr inbounds [500 x i8], [500 x i8]* %2, i64 0, i64 0
  %9 = call i32 (i8*, ...) bitcast (i32 (...)* @gets to i32 (i8*, ...)*)(i8* %8)
  store i32 0, i32* %6, align 4
  store i32 0, i32* %7, align 4
  store i32 2, i32* %3, align 4
  br label %10

10:                                               ; preds = %146, %0
  %11 = load i32, i32* %3, align 4
  %12 = sext i32 %11 to i64
  %13 = getelementptr inbounds [500 x i8], [500 x i8]* %2, i64 0, i64 0
  %14 = call i64 @strlen(i8* %13) #3
  %15 = icmp ult i64 %12, %14
  br i1 %15, label %16, label %149

16:                                               ; preds = %10
  %17 = load i32, i32* %3, align 4
  %18 = sdiv i32 %17, 2
  store i32 %18, i32* %4, align 4
  br label %19

19:                                               ; preds = %142, %16
  %20 = load i32, i32* %4, align 4
  %21 = sext i32 %20 to i64
  %22 = getelementptr inbounds [500 x i8], [500 x i8]* %2, i64 0, i64 0
  %23 = call i64 @strlen(i8* %22) #3
  %24 = load i32, i32* %3, align 4
  %25 = sdiv i32 %24, 2
  %26 = sext i32 %25 to i64
  %27 = sub i64 %23, %26
  %28 = icmp ule i64 %21, %27
  br i1 %28, label %29, label %145

29:                                               ; preds = %19
  store i32 0, i32* %6, align 4
  %30 = load i32, i32* %3, align 4
  %31 = srem i32 %30, 2
  %32 = icmp eq i32 %31, 0
  br i1 %32, label %33, label %62

33:                                               ; preds = %29
  store i32 0, i32* %5, align 4
  br label %34

34:                                               ; preds = %58, %33
  %35 = load i32, i32* %5, align 4
  %36 = load i32, i32* %3, align 4
  %37 = sdiv i32 %36, 2
  %38 = icmp slt i32 %35, %37
  br i1 %38, label %39, label %61

39:                                               ; preds = %34
  %40 = load i32, i32* %4, align 4
  %41 = load i32, i32* %5, align 4
  %42 = sub nsw i32 %40, %41
  %43 = sub nsw i32 %42, 1
  %44 = sext i32 %43 to i64
  %45 = getelementptr inbounds [500 x i8], [500 x i8]* %2, i64 0, i64 %44
  %46 = load i8, i8* %45, align 1
  %47 = sext i8 %46 to i32
  %48 = load i32, i32* %4, align 4
  %49 = load i32, i32* %5, align 4
  %50 = add nsw i32 %48, %49
  %51 = sext i32 %50 to i64
  %52 = getelementptr inbounds [500 x i8], [500 x i8]* %2, i64 0, i64 %51
  %53 = load i8, i8* %52, align 1
  %54 = sext i8 %53 to i32
  %55 = icmp ne i32 %47, %54
  br i1 %55, label %56, label %57

56:                                               ; preds = %39
  store i32 1, i32* %6, align 4
  br label %61

57:                                               ; preds = %39
  br label %58

58:                                               ; preds = %57
  %59 = load i32, i32* %5, align 4
  %60 = add nsw i32 %59, 1
  store i32 %60, i32* %5, align 4
  br label %34

61:                                               ; preds = %56, %34
  br label %62

62:                                               ; preds = %61, %29
  %63 = load i32, i32* %3, align 4
  %64 = srem i32 %63, 2
  %65 = icmp eq i32 %64, 1
  br i1 %65, label %66, label %106

66:                                               ; preds = %62
  %67 = load i32, i32* %4, align 4
  %68 = sext i32 %67 to i64
  %69 = getelementptr inbounds [500 x i8], [500 x i8]* %2, i64 0, i64 0
  %70 = call i64 @strlen(i8* %69) #3
  %71 = load i32, i32* %3, align 4
  %72 = sdiv i32 %71, 2
  %73 = sext i32 %72 to i64
  %74 = sub i64 %70, %73
  %75 = icmp eq i64 %68, %74
  br i1 %75, label %76, label %77

76:                                               ; preds = %66
  br label %145

77:                                               ; preds = %66
  store i32 1, i32* %5, align 4
  br label %78

78:                                               ; preds = %102, %77
  %79 = load i32, i32* %5, align 4
  %80 = load i32, i32* %3, align 4
  %81 = sdiv i32 %80, 2
  %82 = add nsw i32 %81, 1
  %83 = icmp slt i32 %79, %82
  br i1 %83, label %84, label %105

84:                                               ; preds = %78
  %85 = load i32, i32* %4, align 4
  %86 = load i32, i32* %5, align 4
  %87 = sub nsw i32 %85, %86
  %88 = sext i32 %87 to i64
  %89 = getelementptr inbounds [500 x i8], [500 x i8]* %2, i64 0, i64 %88
  %90 = load i8, i8* %89, align 1
  %91 = sext i8 %90 to i32
  %92 = load i32, i32* %4, align 4
  %93 = load i32, i32* %5, align 4
  %94 = add nsw i32 %92, %93
  %95 = sext i32 %94 to i64
  %96 = getelementptr inbounds [500 x i8], [500 x i8]* %2, i64 0, i64 %95
  %97 = load i8, i8* %96, align 1
  %98 = sext i8 %97 to i32
  %99 = icmp ne i32 %91, %98
  br i1 %99, label %100, label %101

100:                                              ; preds = %84
  store i32 1, i32* %6, align 4
  br label %105

101:                                              ; preds = %84
  br label %102

102:                                              ; preds = %101
  %103 = load i32, i32* %5, align 4
  %104 = add nsw i32 %103, 1
  store i32 %104, i32* %5, align 4
  br label %78

105:                                              ; preds = %100, %78
  br label %106

106:                                              ; preds = %105, %62
  %107 = load i32, i32* %6, align 4
  %108 = icmp eq i32 %107, 0
  br i1 %108, label %109, label %141

109:                                              ; preds = %106
  store i32 0, i32* %7, align 4
  br label %110

110:                                              ; preds = %127, %109
  %111 = load i32, i32* %7, align 4
  %112 = load i32, i32* %3, align 4
  %113 = sub nsw i32 %112, 1
  %114 = icmp slt i32 %111, %113
  br i1 %114, label %115, label %130

115:                                              ; preds = %110
  %116 = load i32, i32* %4, align 4
  %117 = load i32, i32* %3, align 4
  %118 = sdiv i32 %117, 2
  %119 = sub nsw i32 %116, %118
  %120 = load i32, i32* %7, align 4
  %121 = add nsw i32 %119, %120
  %122 = sext i32 %121 to i64
  %123 = getelementptr inbounds [500 x i8], [500 x i8]* %2, i64 0, i64 %122
  %124 = load i8, i8* %123, align 1
  %125 = sext i8 %124 to i32
  %126 = call i32 (i8*, ...) @printf(i8* getelementptr inbounds ([3 x i8], [3 x i8]* @.str, i64 0, i64 0), i32 %125)
  br label %127

127:                                              ; preds = %115
  %128 = load i32, i32* %7, align 4
  %129 = add nsw i32 %128, 1
  store i32 %129, i32* %7, align 4
  br label %110

130:                                              ; preds = %110
  %131 = load i32, i32* %4, align 4
  %132 = load i32, i32* %3, align 4
  %133 = sdiv i32 %132, 2
  %134 = add nsw i32 %131, %133
  %135 = sub nsw i32 %134, 1
  %136 = sext i32 %135 to i64
  %137 = getelementptr inbounds [500 x i8], [500 x i8]* %2, i64 0, i64 %136
  %138 = load i8, i8* %137, align 1
  %139 = sext i8 %138 to i32
  %140 = call i32 (i8*, ...) @printf(i8* getelementptr inbounds ([4 x i8], [4 x i8]* @.str.1, i64 0, i64 0), i32 %139)
  br label %141

141:                                              ; preds = %130, %106
  br label %142

142:                                              ; preds = %141
  %143 = load i32, i32* %4, align 4
  %144 = add nsw i32 %143, 1
  store i32 %144, i32* %4, align 4
  br label %19

145:                                              ; preds = %76, %19
  br label %146

146:                                              ; preds = %145
  %147 = load i32, i32* %3, align 4
  %148 = add nsw i32 %147, 1
  store i32 %148, i32* %3, align 4
  br label %10

149:                                              ; preds = %10
  ret i32 0
}

declare dso_local i32 @gets(...) #1

; Function Attrs: nounwind readonly
declare dso_local i64 @strlen(i8*) #2

declare dso_local i32 @printf(i8*, ...) #1


!llvm.module.flags = !{!0}
!llvm.ident = !{!1}

!0 = !{i32 1, !"wchar_size", i32 4}
!1 = !{!"clang version 10.0.0-4ubuntu1 "}
